target datalayout = "e-m:e-p270:32:32-p271:32:32-p272:64:64-i64:64-i128:128-f80:128-n8:16:32:64-S128"
target triple = "x86_64-pc-linux-gnu"

; Function Attrs: nounwind uwtable
define dso_local i32 @phpdbg_mixed_read(i32 noundef %0, ptr noundef %1, i32 noundef %2, i32 noundef %3) #0 {
  %5 = alloca i32, align 4
  %6 = alloca ptr, align 8
  %7 = alloca i32, align 4
  %8 = alloca i32, align 4
  %9 = alloca i32, align 4
  store i32 %0, ptr %5, align 4, !tbaa !39
  store ptr %1, ptr %6, align 8, !tbaa !4
  store i32 %2, ptr %7, align 4, !tbaa !39
  store i32 %3, ptr %8, align 4, !tbaa !39
  call void @llvm.lifetime.start.p0(i64 4, ptr %9) #7
  br label %10

10:                                               ; preds = %24, %4
  %11 = load i32, ptr %5, align 4, !tbaa !39
  %12 = load ptr, ptr %6, align 8, !tbaa !4
  %13 = load i32, ptr %7, align 4, !tbaa !39
  %14 = sext i32 %13 to i64
  %15 = call i64 @read(i32 noundef %11, ptr noundef %12, i64 noundef %14)
  %16 = trunc i64 %15 to i32
  store i32 %16, ptr %9, align 4, !tbaa !39
  br label %17

17:                                               ; preds = %10
  %18 = load i32, ptr %9, align 4, !tbaa !39
  %19 = icmp eq i32 %18, -1
  br i1 %19, label %20, label %24

20:                                               ; preds = %17
  %21 = call ptr @__errno_location() #9
  %22 = load i32, ptr %21, align 4, !tbaa !39
  %23 = icmp eq i32 %22, 4
  br label %24

24:                                               ; preds = %20, %17
  %25 = phi i1 [ false, %17 ], [ %23, %20 ]
  br i1 %25, label %10, label %26

26:                                               ; preds = %24
  %27 = load i32, ptr %9, align 4, !tbaa !39
  call void @llvm.lifetime.end.p0(i64 4, ptr %9) #7
  ret i32 %27
}