; Function Attrs: nofree nounwind uwtable
define dso_local noundef i32 @phpdbg_mixed_read(i32 noundef %0, ptr noundef captures(none) %1, i32 noundef %2, i32 noundef %3) local_unnamed_addr #3 {
  %5 = sext i32 %2 to i64
  br label %6

6:                                                ; preds = %10, %4
  %7 = tail call i64 @read(i32 noundef %0, ptr noundef %1, i64 noundef %5) #8
  %8 = trunc i64 %7 to i32
  %9 = icmp eq i32 %8, -1
  br i1 %9, label %10, label %.critedge

10:                                               ; preds = %6
  %11 = tail call ptr @__errno_location() #9
  %12 = load i32, ptr %11, align 4, !tbaa !42
  %13 = icmp eq i32 %12, 4
  br i1 %13, label %6, label %.critedge

.critedge:                                        ; preds = %6, %10
  ret i32 %8
}